target datalayout = "e-m:e-p270:32:32-p271:32:32-p272:64:64-i64:64-i128:128-f80:128-n8:16:32:64-S128"
target triple = "x86_64-pc-linux-gnu"

%"class.std::__cxx11::basic_string" = type { %"struct.std::__cxx11::basic_string<char>::_Alloc_hider", i64, %union.anon }
%"struct.std::__cxx11::basic_string<char>::_Alloc_hider" = type { ptr }
%union.anon = type { i64, [8 x i8] }
%"class.rocksdb::WriteThread" = type { ptr, i64, i64, i8, i8, i64, %"struct.std::atomic", %"struct.std::atomic", i64, %"struct.rocksdb::WriteThread::Writer", %"class.rocksdb::port::Mutex", %"class.rocksdb::port::CondVar", i64, i64 }
%"struct.std::atomic" = type { %"struct.std::__atomic_base" }
%"struct.std::__atomic_base" = type { ptr }
%"struct.rocksdb::WriteThread::Writer" = type <{ ptr, i8, i8, i8, i8, i32, i8, [7 x i8], i64, i64, ptr, ptr, i64, i64, ptr, ptr, i8, %"struct.std::atomic.3", [6 x i8], ptr, i64, %"class.rocksdb::Status", %"class.rocksdb::Status", %"struct.rocksdb::aligned_storage<std::mutex>::type", %"struct.rocksdb::aligned_storage<std::condition_variable>::type", ptr, ptr, i8, [7 x i8] }>
%"struct.std::atomic.3" = type { %"struct.std::__atomic_base.4" }
%"struct.std::__atomic_base.4" = type { i8 }
%"class.rocksdb::Status" = type { i8, i8, i8, i8, i8, i8, %"class.std::unique_ptr" }
%"class.std::unique_ptr" = type { %"struct.std::__uniq_ptr_data" }
%"struct.std::__uniq_ptr_data" = type { %"class.std::__uniq_ptr_impl" }
%"class.std::__uniq_ptr_impl" = type { %"class.std::tuple" }
%"class.std::tuple" = type { %"struct.std::_Tuple_impl" }
%"struct.std::_Tuple_impl" = type { %"struct.std::_Head_base.6" }
%"struct.std::_Head_base.6" = type { ptr }
%"struct.rocksdb::aligned_storage<std::mutex>::type" = type { [40 x i8] }
%"struct.rocksdb::aligned_storage<std::condition_variable>::type" = type { [48 x i8] }
%"class.rocksdb::port::Mutex" = type { %union.pthread_mutex_t }
%union.pthread_mutex_t = type { %struct.__pthread_mutex_s }
%struct.__pthread_mutex_s = type { i32, i32, i32, i32, i32, i16, i16, %struct.__pthread_internal_list }
%struct.__pthread_internal_list = type { ptr, ptr }
%"class.rocksdb::port::CondVar" = type { %union.pthread_cond_t, ptr }
%union.pthread_cond_t = type { %struct.__pthread_cond_s }
%struct.__pthread_cond_s = type { %union.__atomic_wide_counter, %union.__atomic_wide_counter, [2 x i32], [2 x i32], i32, i32, [2 x i32] }
%union.__atomic_wide_counter = type { i64 }
%"struct.rocksdb::WriteThread::WriteGroup" = type { ptr, ptr, i64, %"class.rocksdb::Status", %"struct.std::atomic.44", i64 }
%"struct.std::atomic.44" = type { %"struct.std::__atomic_base.45" }
%"struct.std::__atomic_base.45" = type { i64 }
%"class.rocksdb::WriteBatch" = type { %"class.rocksdb::WriteBatchBase", %"class.std::unique_ptr.46", %"struct.rocksdb::SavePoint", i8, i8, i8, %"struct.std::atomic.54", i64, %"class.std::unique_ptr.56", i64, i8, %"class.std::unordered_map", %"class.std::__cxx11::basic_string" }
%"class.rocksdb::WriteBatchBase" = type { ptr }
%"class.std::unique_ptr.46" = type { %"struct.std::__uniq_ptr_data.47" }
%"struct.std::__uniq_ptr_data.47" = type { %"class.std::__uniq_ptr_impl.48" }
%"class.std::__uniq_ptr_impl.48" = type { %"class.std::tuple.49" }
%"class.std::tuple.49" = type { %"struct.std::_Tuple_impl.50" }
%"struct.std::_Tuple_impl.50" = type { %"struct.std::_Head_base.53" }
%"struct.std::_Head_base.53" = type { ptr }
%"struct.rocksdb::SavePoint" = type { i64, i32, i32 }
%"struct.std::atomic.54" = type { %"struct.std::__atomic_base.55" }
%"struct.std::__atomic_base.55" = type { i32 }
%"class.std::unique_ptr.56" = type { %"struct.std::__uniq_ptr_data.57" }
%"struct.std::__uniq_ptr_data.57" = type { %"class.std::__uniq_ptr_impl.58" }
%"class.std::__uniq_ptr_impl.58" = type { %"class.std::tuple.59" }
%"class.std::tuple.59" = type { %"struct.std::_Tuple_impl.60" }
%"struct.std::_Tuple_impl.60" = type { %"struct.std::_Head_base.63" }
%"struct.std::_Head_base.63" = type { ptr }
%"class.std::unordered_map" = type { %"class.std::_Hashtable" }
%"class.std::_Hashtable" = type { ptr, i64, %"struct.std::__detail::_Hash_node_base", i64, %"struct.std::__detail::_Prime_rehash_policy", ptr }
%"struct.std::__detail::_Hash_node_base" = type { ptr }
%"struct.std::__detail::_Prime_rehash_policy" = type { float, i64 }

; Function Attrs: mustprogress nounwind uwtable
define linkonce_odr noundef i32 @_ZStanSt12memory_orderSt23__memory_order_modifier(i32 noundef %0, i32 noundef %1) #3 comdat {
  %3 = alloca i32, align 4
  %4 = alloca i32, align 4
  store i32 %0, ptr %3, align 4, !tbaa !177
  store i32 %1, ptr %4, align 4, !tbaa !358
  %5 = load i32, ptr %3, align 4, !tbaa !177
  %6 = load i32, ptr %4, align 4, !tbaa !358
  %7 = and i32 %5, %6
  ret i32 %7
}

; Function Attrs: alwaysinline mustprogress nounwind uwtable
define linkonce_odr noundef ptr @_ZNKSt13__atomic_baseIPN7rocksdb11WriteThread6WriterEE4loadESt12memory_order(ptr noundef nonnull align 8 dereferenceable(8) %0, i32 noundef %1) #8 comdat align 2 {
  %3 = alloca ptr, align 8
  %4 = alloca i32, align 4
  %5 = alloca i32, align 4
  %6 = alloca ptr, align 8
  store ptr %0, ptr %3, align 8, !tbaa !306
  store i32 %1, ptr %4, align 4, !tbaa !177
  %7 = load ptr, ptr %3, align 8
  call void @llvm.lifetime.start.p0(i64 4, ptr %5) #4
  %8 = load i32, ptr %4, align 4, !tbaa !177
  %9 = call noundef i32 @_ZStanSt12memory_orderSt23__memory_order_modifier(i32 noundef %8, i32 noundef 65535)
  store i32 %9, ptr %5, align 4, !tbaa !177
  br label %10

10:                                               ; preds = %2
  br label %11

11:                                               ; preds = %10
  br label %12

12:                                               ; preds = %11
  br label %13

13:                                               ; preds = %12
  br label %14

14:                                               ; preds = %13
  br label %15

15:                                               ; preds = %14
  %16 = getelementptr inbounds nuw %"struct.std::__atomic_base", ptr %7, i32 0, i32 0
  %17 = load i32, ptr %4, align 4, !tbaa !177
  switch i32 %17, label %18 [
    i32 1, label %20
    i32 2, label %20
    i32 5, label %22
  ]

18:                                               ; preds = %15
  %19 = load atomic i64, ptr %16 monotonic, align 8
  store i64 %19, ptr %6, align 8
  br label %24

20:                                               ; preds = %15, %15
  %21 = load atomic i64, ptr %16 acquire, align 8
  store i64 %21, ptr %6, align 8
  br label %24

22:                                               ; preds = %15
  %23 = load atomic i64, ptr %16 seq_cst, align 8
  store i64 %23, ptr %6, align 8
  br label %24

24:                                               ; preds = %22, %20, %18
  %25 = load ptr, ptr %6, align 8, !tbaa !152
  call void @llvm.lifetime.end.p0(i64 4, ptr %5) #4
  ret ptr %25
}

; Function Attrs: mustprogress nounwind uwtable
define available_externally noundef i64 @_ZNKSt7__cxx1112basic_stringIcSt11char_traitsIcESaIcEE4sizeEv(ptr noundef nonnull align 8 dereferenceable(32) %0) #3 align 2 {
  %2 = alloca ptr, align 8
  store ptr %0, ptr %2, align 8, !tbaa !25
  %3 = load ptr, ptr %2, align 8
  %4 = getelementptr inbounds nuw %"class.std::__cxx11::basic_string", ptr %3, i32 0, i32 1
  %5 = load i64, ptr %4, align 8, !tbaa !304
  ret i64 %5
}

; Function Attrs: mustprogress nounwind uwtable
define void @_ZN7rocksdb11WriteThread23CreateMissingNewerLinksEPNS0_6WriterE(ptr noundef nonnull align 8 dereferenceable(432) %0, ptr noundef %1) #3 align 2 {
  %3 = alloca ptr, align 8
  %4 = alloca ptr, align 8
  %5 = alloca ptr, align 8
  %6 = alloca i32, align 4
  store ptr %0, ptr %3, align 8, !tbaa !48
  store ptr %1, ptr %4, align 8, !tbaa !152
  br label %7

7:                                                ; preds = %2, %26
  call void @llvm.lifetime.start.p0(i64 8, ptr %5) #4
  %8 = load ptr, ptr %4, align 8, !tbaa !152
  %9 = getelementptr inbounds nuw %"struct.rocksdb::WriteThread::Writer", ptr %8, i32 0, i32 25
  %10 = load ptr, ptr %9, align 8, !tbaa !170
  store ptr %10, ptr %5, align 8, !tbaa !152
  %11 = load ptr, ptr %5, align 8, !tbaa !152
  %12 = icmp eq ptr %11, null
  br i1 %12, label %18, label %13

13:                                               ; preds = %7
  %14 = load ptr, ptr %5, align 8, !tbaa !152
  %15 = getelementptr inbounds nuw %"struct.rocksdb::WriteThread::Writer", ptr %14, i32 0, i32 26
  %16 = load ptr, ptr %15, align 8, !tbaa !171
  %17 = icmp ne ptr %16, null
  br i1 %17, label %18, label %19

18:                                               ; preds = %13, %7
  store i32 3, ptr %6, align 4
  br label %24

19:                                               ; preds = %13
  %20 = load ptr, ptr %4, align 8, !tbaa !152
  %21 = load ptr, ptr %5, align 8, !tbaa !152
  %22 = getelementptr inbounds nuw %"struct.rocksdb::WriteThread::Writer", ptr %21, i32 0, i32 26
  store ptr %20, ptr %22, align 8, !tbaa !171
  %23 = load ptr, ptr %5, align 8, !tbaa !152
  store ptr %23, ptr %4, align 8, !tbaa !152
  store i32 0, ptr %6, align 4
  br label %24

24:                                               ; preds = %19, %18
  call void @llvm.lifetime.end.p0(i64 8, ptr %5) #4
  %25 = load i32, ptr %6, align 4
  switch i32 %25, label %28 [
    i32 0, label %26
    i32 3, label %27
  ]

26:                                               ; preds = %24
  br label %7, !llvm.loop !263

27:                                               ; preds = %24
  ret void

28:                                               ; preds = %24
  unreachable
}

; Function Attrs: mustprogress nounwind uwtable
define linkonce_odr noundef ptr @_ZNKSt6atomicIPN7rocksdb11WriteThread6WriterEE4loadESt12memory_order(ptr noundef nonnull align 8 dereferenceable(8) %0, i32 noundef %1) #3 comdat align 2 {
  %3 = alloca ptr, align 8
  %4 = alloca i32, align 4
  store ptr %0, ptr %3, align 8, !tbaa !150
  store i32 %1, ptr %4, align 4, !tbaa !177
  %5 = load ptr, ptr %3, align 8
  %6 = getelementptr inbounds nuw %"struct.std::atomic", ptr %5, i32 0, i32 0
  %7 = load i32, ptr %4, align 4, !tbaa !177
  %8 = call noundef ptr @_ZNKSt13__atomic_baseIPN7rocksdb11WriteThread6WriterEE4loadESt12memory_order(ptr noundef nonnull align 8 dereferenceable(8) %6, i32 noundef %7) #4
  ret ptr %8
}

; Function Attrs: mustprogress nounwind uwtable
define linkonce_odr noundef i64 @_ZN7rocksdb18WriteBatchInternal8ByteSizeEPKNS_10WriteBatchE(ptr noundef %0) #3 comdat align 2 {
  %2 = alloca ptr, align 8
  store ptr %0, ptr %2, align 8, !tbaa !276
  %3 = load ptr, ptr %2, align 8, !tbaa !276
  %4 = getelementptr inbounds nuw %"class.rocksdb::WriteBatch", ptr %3, i32 0, i32 12
  %5 = call noundef i64 @_ZNKSt7__cxx1112basic_stringIcSt11char_traitsIcESaIcEE4sizeEv(ptr noundef nonnull align 8 dereferenceable(32) %4) #4
  ret i64 %5
}

; Function Attrs: mustprogress uwtable
define void @_ZN7rocksdb11WriteThread21EnterAsMemTableWriterEPNS0_6WriterEPNS0_10WriteGroupE(ptr noundef nonnull align 8 dereferenceable(432) %0, ptr noundef %1, ptr noundef %2) #5 align 2 {
  %4 = alloca ptr, align 8
  %5 = alloca ptr, align 8
  %6 = alloca ptr, align 8
  %7 = alloca i64, align 8
  %8 = alloca i64, align 8
  %9 = alloca i64, align 8
  %10 = alloca ptr, align 8
  %11 = alloca ptr, align 8
  %12 = alloca ptr, align 8
  %13 = alloca i64, align 8
  %14 = alloca i32, align 4
  store ptr %0, ptr %4, align 8, !tbaa !48
  store ptr %1, ptr %5, align 8, !tbaa !152
  store ptr %2, ptr %6, align 8, !tbaa !255
  %15 = load ptr, ptr %4, align 8
  call void @llvm.lifetime.start.p0(i64 8, ptr %7) #4
  %16 = load ptr, ptr %5, align 8, !tbaa !152
  %17 = getelementptr inbounds nuw %"struct.rocksdb::WriteThread::Writer", ptr %16, i32 0, i32 0
  %18 = load ptr, ptr %17, align 8, !tbaa !153
  %19 = call noundef i64 @_ZN7rocksdb18WriteBatchInternal8ByteSizeEPKNS_10WriteBatchE(ptr noundef %18)
  store i64 %19, ptr %7, align 8, !tbaa !4
  call void @llvm.lifetime.start.p0(i64 8, ptr %8) #4
  %20 = getelementptr inbounds nuw %"class.rocksdb::WriteThread", ptr %15, i32 0, i32 5
  %21 = load i64, ptr %20, align 8, !tbaa !145
  store i64 %21, ptr %8, align 8, !tbaa !4
  call void @llvm.lifetime.start.p0(i64 8, ptr %9) #4
  %22 = getelementptr inbounds nuw %"class.rocksdb::WriteThread", ptr %15, i32 0, i32 5
  %23 = load i64, ptr %22, align 8, !tbaa !145
  %24 = udiv i64 %23, 8
  store i64 %24, ptr %9, align 8, !tbaa !4
  %25 = load i64, ptr %7, align 8, !tbaa !4
  %26 = load i64, ptr %9, align 8, !tbaa !4
  %27 = icmp ule i64 %25, %26
  br i1 %27, label %28, label %32

28:                                               ; preds = %3
  %29 = load i64, ptr %7, align 8, !tbaa !4
  %30 = load i64, ptr %9, align 8, !tbaa !4
  %31 = add i64 %29, %30
  store i64 %31, ptr %8, align 8, !tbaa !4
  br label %32

32:                                               ; preds = %28, %3
  %33 = load ptr, ptr %6, align 8, !tbaa !255
  %34 = load ptr, ptr %5, align 8, !tbaa !152
  %35 = getelementptr inbounds nuw %"struct.rocksdb::WriteThread::Writer", ptr %34, i32 0, i32 19
  store ptr %33, ptr %35, align 8, !tbaa !168
  %36 = load ptr, ptr %5, align 8, !tbaa !152
  %37 = load ptr, ptr %6, align 8, !tbaa !255
  %38 = getelementptr inbounds nuw %"struct.rocksdb::WriteThread::WriteGroup", ptr %37, i32 0, i32 0
  store ptr %36, ptr %38, align 8, !tbaa !256
  %39 = load ptr, ptr %6, align 8, !tbaa !255
  %40 = getelementptr inbounds nuw %"struct.rocksdb::WriteThread::WriteGroup", ptr %39, i32 0, i32 5
  store i64 1, ptr %40, align 8, !tbaa !264
  call void @llvm.lifetime.start.p0(i64 8, ptr %10) #4
  %41 = load ptr, ptr %5, align 8, !tbaa !152
  store ptr %41, ptr %10, align 8, !tbaa !152
  %42 = getelementptr inbounds nuw %"class.rocksdb::WriteThread", ptr %15, i32 0, i32 3
  %43 = load i8, ptr %42, align 8, !tbaa !141, !range !105, !noundef !106
  %44 = trunc i8 %43 to i1
  br i1 %44, label %45, label %50

45:                                               ; preds = %32
  %46 = load ptr, ptr %5, align 8, !tbaa !152
  %47 = getelementptr inbounds nuw %"struct.rocksdb::WriteThread::Writer", ptr %46, i32 0, i32 0
  %48 = load ptr, ptr %47, align 8, !tbaa !153
  %49 = call noundef zeroext i1 @_ZNK7rocksdb10WriteBatch8HasMergeEv(ptr noundef nonnull align 8 dereferenceable(160) %48)
  br i1 %49, label %106, label %50

50:                                               ; preds = %45, %32
  call void @llvm.lifetime.start.p0(i64 8, ptr %11) #4
  %51 = getelementptr inbounds nuw %"class.rocksdb::WriteThread", ptr %15, i32 0, i32 7
  %52 = call noundef ptr @_ZNKSt6atomicIPN7rocksdb11WriteThread6WriterEE4loadESt12memory_order(ptr noundef nonnull align 8 dereferenceable(8) %51, i32 noundef 5) #4
  store ptr %52, ptr %11, align 8, !tbaa !152
  %53 = load ptr, ptr %11, align 8, !tbaa !152
  call void @_ZN7rocksdb11WriteThread23CreateMissingNewerLinksEPNS0_6WriterE(ptr noundef nonnull align 8 dereferenceable(432) %15, ptr noundef %53)
  call void @llvm.lifetime.start.p0(i64 8, ptr %12) #4
  %54 = load ptr, ptr %5, align 8, !tbaa !152
  store ptr %54, ptr %12, align 8, !tbaa !152
  br label %55

55:                                               ; preds = %96, %50
  %56 = load ptr, ptr %12, align 8, !tbaa !152
  %57 = load ptr, ptr %11, align 8, !tbaa !152
  %58 = icmp ne ptr %56, %57
  br i1 %58, label %59, label %105

59:                                               ; preds = %55
  %60 = load ptr, ptr %12, align 8, !tbaa !152
  %61 = getelementptr inbounds nuw %"struct.rocksdb::WriteThread::Writer", ptr %60, i32 0, i32 26
  %62 = load ptr, ptr %61, align 8, !tbaa !171
  store ptr %62, ptr %12, align 8, !tbaa !152
  %63 = load ptr, ptr %12, align 8, !tbaa !152
  %64 = getelementptr inbounds nuw %"struct.rocksdb::WriteThread::Writer", ptr %63, i32 0, i32 0
  %65 = load ptr, ptr %64, align 8, !tbaa !153
  %66 = icmp eq ptr %65, null
  br i1 %66, label %67, label %68

67:                                               ; preds = %59
  br label %105

68:                                               ; preds = %59
  %69 = load ptr, ptr %12, align 8, !tbaa !152
  %70 = getelementptr inbounds nuw %"struct.rocksdb::WriteThread::Writer", ptr %69, i32 0, i32 0
  %71 = load ptr, ptr %70, align 8, !tbaa !153
  %72 = call noundef zeroext i1 @_ZNK7rocksdb10WriteBatch8HasMergeEv(ptr noundef nonnull align 8 dereferenceable(160) %71)
  br i1 %72, label %73, label %74

73:                                               ; preds = %68
  br label %105

74:                                               ; preds = %68
  %75 = getelementptr inbounds nuw %"class.rocksdb::WriteThread", ptr %15, i32 0, i32 3
  %76 = load i8, ptr %75, align 8, !tbaa !141, !range !105, !noundef !106
  %77 = trunc i8 %76 to i1
  br i1 %77, label %96, label %78

78:                                               ; preds = %74
  call void @llvm.lifetime.start.p0(i64 8, ptr %13) #4
  %79 = load ptr, ptr %12, align 8, !tbaa !152
  %80 = getelementptr inbounds nuw %"struct.rocksdb::WriteThread::Writer", ptr %79, i32 0, i32 0
  %81 = load ptr, ptr %80, align 8, !tbaa !153
  %82 = call noundef i64 @_ZN7rocksdb18WriteBatchInternal8ByteSizeEPKNS_10WriteBatchE(ptr noundef %81)
  store i64 %82, ptr %13, align 8, !tbaa !4
  %83 = load i64, ptr %7, align 8, !tbaa !4
  %84 = load i64, ptr %13, align 8, !tbaa !4
  %85 = add i64 %83, %84
  %86 = load i64, ptr %8, align 8, !tbaa !4
  %87 = icmp ugt i64 %85, %86
  br i1 %87, label %88, label %89

88:                                               ; preds = %78
  store i32 3, ptr %14, align 4
  br label %93

89:                                               ; preds = %78
  %90 = load i64, ptr %13, align 8, !tbaa !4
  %91 = load i64, ptr %7, align 8, !tbaa !4
  %92 = add i64 %91, %90
  store i64 %92, ptr %7, align 8, !tbaa !4
  store i32 0, ptr %14, align 4
  br label %93

93:                                               ; preds = %89, %88
  call void @llvm.lifetime.end.p0(i64 8, ptr %13) #4
  %94 = load i32, ptr %14, align 4
  switch i32 %94, label %122 [
    i32 0, label %95
    i32 3, label %105
  ]

95:                                               ; preds = %93
  br label %96

96:                                               ; preds = %95, %74
  %97 = load ptr, ptr %6, align 8, !tbaa !255
  %98 = load ptr, ptr %12, align 8, !tbaa !152
  %99 = getelementptr inbounds nuw %"struct.rocksdb::WriteThread::Writer", ptr %98, i32 0, i32 19
  store ptr %97, ptr %99, align 8, !tbaa !168
  %100 = load ptr, ptr %12, align 8, !tbaa !152
  store ptr %100, ptr %10, align 8, !tbaa !152
  %101 = load ptr, ptr %6, align 8, !tbaa !255
  %102 = getelementptr inbounds nuw %"struct.rocksdb::WriteThread::WriteGroup", ptr %101, i32 0, i32 5
  %103 = load i64, ptr %102, align 8, !tbaa !264
  %104 = add i64 %103, 1
  store i64 %104, ptr %102, align 8, !tbaa !264
  br label %55, !llvm.loop !277

105:                                              ; preds = %93, %73, %67, %55
  call void @llvm.lifetime.end.p0(i64 8, ptr %12) #4
  call void @llvm.lifetime.end.p0(i64 8, ptr %11) #4
  br label %106

106:                                              ; preds = %105, %45
  %107 = load ptr, ptr %10, align 8, !tbaa !152
  %108 = load ptr, ptr %6, align 8, !tbaa !255
  %109 = getelementptr inbounds nuw %"struct.rocksdb::WriteThread::WriteGroup", ptr %108, i32 0, i32 1
  store ptr %107, ptr %109, align 8, !tbaa !260
  %110 = load ptr, ptr %10, align 8, !tbaa !152
  %111 = getelementptr inbounds nuw %"struct.rocksdb::WriteThread::Writer", ptr %110, i32 0, i32 20
  %112 = load i64, ptr %111, align 8, !tbaa !169
  %113 = load ptr, ptr %10, align 8, !tbaa !152
  %114 = getelementptr inbounds nuw %"struct.rocksdb::WriteThread::Writer", ptr %113, i32 0, i32 0
  %115 = load ptr, ptr %114, align 8, !tbaa !153
  %116 = call noundef i32 @_ZN7rocksdb18WriteBatchInternal5CountEPKNS_10WriteBatchE(ptr noundef %115)
  %117 = zext i32 %116 to i64
  %118 = add i64 %112, %117
  %119 = sub i64 %118, 1
  %120 = load ptr, ptr %6, align 8, !tbaa !255
  %121 = getelementptr inbounds nuw %"struct.rocksdb::WriteThread::WriteGroup", ptr %120, i32 0, i32 2
  store i64 %119, ptr %121, align 8, !tbaa !278
  call void @llvm.lifetime.end.p0(i64 8, ptr %10) #4
  call void @llvm.lifetime.end.p0(i64 8, ptr %9) #4
  call void @llvm.lifetime.end.p0(i64 8, ptr %8) #4
  call void @llvm.lifetime.end.p0(i64 8, ptr %7) #4
  ret void

122:                                              ; preds = %93
  unreachable
}