; Function Attrs: mustprogress uwtable
define void @_ZN7rocksdb11WriteThread21EnterAsMemTableWriterEPNS0_6WriterEPNS0_10WriteGroupE(ptr noundef nonnull readonly align 8 captures(none) dereferenceable(432) %0, ptr noundef initializes((96, 104)) %1, ptr noundef %2) local_unnamed_addr #4 align 2 {
  %4 = load ptr, ptr %1, align 8, !tbaa !176
  %5 = getelementptr inbounds nuw i8, ptr %4, i64 136
  %6 = load i64, ptr %5, align 8, !tbaa !16
  %7 = getelementptr inbounds nuw i8, ptr %0, i64 32
  %8 = load i64, ptr %7, align 8, !tbaa !111
  %9 = lshr i64 %8, 3
  %.not = icmp ugt i64 %6, %9
  %10 = add nuw nsw i64 %9, %6
  %spec.select = select i1 %.not, i64 %8, i64 %10
  %11 = getelementptr inbounds nuw i8, ptr %1, i64 96
  store ptr %2, ptr %11, align 8, !tbaa !115
  store ptr %1, ptr %2, align 8, !tbaa !160
  %12 = getelementptr inbounds nuw i8, ptr %2, i64 48
  store i64 1, ptr %12, align 8, !tbaa !168
  %13 = getelementptr inbounds nuw i8, ptr %0, i64 24
  %14 = load i8, ptr %13, align 8, !tbaa !107, !range !72, !noundef !73
  %15 = trunc nuw i8 %14 to i1
  br i1 %15, label %16, label %18

16:                                               ; preds = %3
  %17 = tail call noundef zeroext i1 @_ZNK7rocksdb10WriteBatch8HasMergeEv(ptr noundef nonnull align 8 dereferenceable(160) %4)
  br i1 %17, label %.loopexit, label %18

18:                                               ; preds = %16, %3
  %19 = getelementptr inbounds nuw i8, ptr %0, i64 48
  %20 = load atomic i64, ptr %19 seq_cst, align 8
  %.0.i.i = inttoptr i64 %20 to ptr
  %21 = getelementptr inbounds nuw i8, ptr %.0.i.i, i64 232
  %22 = load ptr, ptr %21, align 8, !tbaa !159
  %23 = icmp eq ptr %22, null
  br i1 %23, label %_ZN7rocksdb11WriteThread23CreateMissingNewerLinksEPNS0_6WriterE.exit, label %.lr.ph.i

.lr.ph.i:                                         ; preds = %18, %27
  %24 = phi ptr [ %29, %27 ], [ %22, %18 ]
  %.0611.i = phi ptr [ %24, %27 ], [ %.0.i.i, %18 ]
  %25 = getelementptr inbounds nuw i8, ptr %24, i64 240
  %26 = load ptr, ptr %25, align 8, !tbaa !165
  %.not.i = icmp eq ptr %26, null
  br i1 %.not.i, label %27, label %_ZN7rocksdb11WriteThread23CreateMissingNewerLinksEPNS0_6WriterE.exit

27:                                               ; preds = %.lr.ph.i
  store ptr %.0611.i, ptr %25, align 8, !tbaa !165
  %28 = getelementptr inbounds nuw i8, ptr %24, i64 232
  %29 = load ptr, ptr %28, align 8, !tbaa !159
  %30 = icmp eq ptr %29, null
  br i1 %30, label %_ZN7rocksdb11WriteThread23CreateMissingNewerLinksEPNS0_6WriterE.exit, label %.lr.ph.i

_ZN7rocksdb11WriteThread23CreateMissingNewerLinksEPNS0_6WriterE.exit: ; preds = %.lr.ph.i, %27, %18
  %.not4445 = icmp eq ptr %1, %.0.i.i
  br i1 %.not4445, label %.loopexit, label %.lr.ph

.lr.ph:                                           ; preds = %_ZN7rocksdb11WriteThread23CreateMissingNewerLinksEPNS0_6WriterE.exit, %46
  %.03547 = phi i64 [ %.1, %46 ], [ %6, %_ZN7rocksdb11WriteThread23CreateMissingNewerLinksEPNS0_6WriterE.exit ]
  %.03646 = phi ptr [ %32, %46 ], [ %1, %_ZN7rocksdb11WriteThread23CreateMissingNewerLinksEPNS0_6WriterE.exit ]
  %31 = getelementptr inbounds nuw i8, ptr %.03646, i64 240
  %32 = load ptr, ptr %31, align 8, !tbaa !165
  %33 = load ptr, ptr %32, align 8, !tbaa !176
  %34 = icmp eq ptr %33, null
  br i1 %34, label %.loopexit, label %35

35:                                               ; preds = %.lr.ph
  %36 = tail call noundef zeroext i1 @_ZNK7rocksdb10WriteBatch8HasMergeEv(ptr noundef nonnull align 8 dereferenceable(160) %33)
  br i1 %36, label %.loopexit, label %37

37:                                               ; preds = %35
  %38 = load i8, ptr %13, align 8, !tbaa !107, !range !72, !noundef !73
  %39 = trunc nuw i8 %38 to i1
  br i1 %39, label %46, label %40

40:                                               ; preds = %37
  %41 = load ptr, ptr %32, align 8, !tbaa !176
  %42 = getelementptr inbounds nuw i8, ptr %41, i64 136
  %43 = load i64, ptr %42, align 8, !tbaa !16
  %44 = add i64 %43, %.03547
  %45 = icmp ugt i64 %44, %spec.select
  br i1 %45, label %.loopexit, label %46

46:                                               ; preds = %40, %37
  %.1 = phi i64 [ %.03547, %37 ], [ %44, %40 ]
  %47 = getelementptr inbounds nuw i8, ptr %32, i64 96
  store ptr %2, ptr %47, align 8, !tbaa !115
  %48 = load i64, ptr %12, align 8, !tbaa !168
  %49 = add i64 %48, 1
  store i64 %49, ptr %12, align 8, !tbaa !168
  %.not44 = icmp eq ptr %32, %.0.i.i
  br i1 %.not44, label %.loopexit, label %.lr.ph, !llvm.loop !184

.loopexit:                                        ; preds = %35, %.lr.ph, %46, %40, %_ZN7rocksdb11WriteThread23CreateMissingNewerLinksEPNS0_6WriterE.exit, %16
  %.038 = phi ptr [ %1, %16 ], [ %1, %_ZN7rocksdb11WriteThread23CreateMissingNewerLinksEPNS0_6WriterE.exit ], [ %.03646, %35 ], [ %.03646, %.lr.ph ], [ %32, %46 ], [ %.03646, %40 ]
  %50 = getelementptr inbounds nuw i8, ptr %2, i64 8
  store ptr %.038, ptr %50, align 8, !tbaa !164
  %51 = getelementptr inbounds nuw i8, ptr %.038, i64 104
  %52 = load i64, ptr %51, align 8, !tbaa !116
  %53 = load ptr, ptr %.038, align 8, !tbaa !176
  %54 = tail call noundef i32 @_ZN7rocksdb18WriteBatchInternal5CountEPKNS_10WriteBatchE(ptr noundef %53)
  %55 = zext i32 %54 to i64
  %56 = add i64 %52, -1
  %57 = add i64 %56, %55
  %58 = getelementptr inbounds nuw i8, ptr %2, i64 16
  store i64 %57, ptr %58, align 8, !tbaa !185
  ret void
}